target datalayout = "e-m:e-p270:32:32-p271:32:32-p272:64:64-i64:64-i128:128-f80:128-n8:16:32:64-S128"
target triple = "x86_64-pc-linux-gnu"

%struct.FxuMatrix = type { %struct.FxuListCube, %struct.FxuListVar, ptr, ptr, i32, i32, i32, ptr, %struct.FxuListSingle, ptr, i32, i32, ptr, ptr, ptr, ptr, ptr, ptr, ptr, i32, i32, i32, i32, ptr }
%struct.FxuListCube = type { ptr, ptr, i32 }
%struct.FxuListVar = type { ptr, ptr, i32 }
%struct.FxuListSingle = type { ptr, ptr, i32 }
%struct.FxuListLit = type { ptr, ptr, i32 }
%struct.FxuCube = type { i32, ptr, ptr, %struct.FxuListLit, ptr, ptr, ptr }

; Function Attrs: nounwind uwtable
define void @Fxu_ListMatrixDelCube(ptr noundef %0, ptr noundef %1) #0 {
  %3 = alloca ptr, align 8
  %4 = alloca ptr, align 8
  %5 = alloca ptr, align 8
  store ptr %0, ptr %3, align 8, !tbaa !3
  store ptr %1, ptr %4, align 8, !tbaa !24
  call void @llvm.lifetime.start.p0(i64 8, ptr %5) #3
  %6 = load ptr, ptr %3, align 8, !tbaa !3
  %7 = getelementptr inbounds nuw %struct.FxuMatrix, ptr %6, i32 0, i32 0
  store ptr %7, ptr %5, align 8, !tbaa !25
  %8 = load ptr, ptr %5, align 8, !tbaa !25
  %9 = getelementptr inbounds nuw %struct.FxuListCube, ptr %8, i32 0, i32 0
  %10 = load ptr, ptr %9, align 8, !tbaa !27
  %11 = load ptr, ptr %4, align 8, !tbaa !24
  %12 = icmp eq ptr %10, %11
  br i1 %12, label %13, label %19

13:                                               ; preds = %2
  %14 = load ptr, ptr %4, align 8, !tbaa !24
  %15 = getelementptr inbounds nuw %struct.FxuCube, ptr %14, i32 0, i32 5
  %16 = load ptr, ptr %15, align 8, !tbaa !32
  %17 = load ptr, ptr %5, align 8, !tbaa !25
  %18 = getelementptr inbounds nuw %struct.FxuListCube, ptr %17, i32 0, i32 0
  store ptr %16, ptr %18, align 8, !tbaa !27
  br label %19

19:                                               ; preds = %13, %2
  %20 = load ptr, ptr %5, align 8, !tbaa !25
  %21 = getelementptr inbounds nuw %struct.FxuListCube, ptr %20, i32 0, i32 1
  %22 = load ptr, ptr %21, align 8, !tbaa !29
  %23 = load ptr, ptr %4, align 8, !tbaa !24
  %24 = icmp eq ptr %22, %23
  br i1 %24, label %25, label %31

25:                                               ; preds = %19
  %26 = load ptr, ptr %4, align 8, !tbaa !24
  %27 = getelementptr inbounds nuw %struct.FxuCube, ptr %26, i32 0, i32 4
  %28 = load ptr, ptr %27, align 8, !tbaa !30
  %29 = load ptr, ptr %5, align 8, !tbaa !25
  %30 = getelementptr inbounds nuw %struct.FxuListCube, ptr %29, i32 0, i32 1
  store ptr %28, ptr %30, align 8, !tbaa !29
  br label %31

31:                                               ; preds = %25, %19
  %32 = load ptr, ptr %4, align 8, !tbaa !24
  %33 = getelementptr inbounds nuw %struct.FxuCube, ptr %32, i32 0, i32 4
  %34 = load ptr, ptr %33, align 8, !tbaa !30
  %35 = icmp ne ptr %34, null
  br i1 %35, label %36, label %44

36:                                               ; preds = %31
  %37 = load ptr, ptr %4, align 8, !tbaa !24
  %38 = getelementptr inbounds nuw %struct.FxuCube, ptr %37, i32 0, i32 5
  %39 = load ptr, ptr %38, align 8, !tbaa !32
  %40 = load ptr, ptr %4, align 8, !tbaa !24
  %41 = getelementptr inbounds nuw %struct.FxuCube, ptr %40, i32 0, i32 4
  %42 = load ptr, ptr %41, align 8, !tbaa !30
  %43 = getelementptr inbounds nuw %struct.FxuCube, ptr %42, i32 0, i32 5
  store ptr %39, ptr %43, align 8, !tbaa !32
  br label %44

44:                                               ; preds = %36, %31
  %45 = load ptr, ptr %4, align 8, !tbaa !24
  %46 = getelementptr inbounds nuw %struct.FxuCube, ptr %45, i32 0, i32 5
  %47 = load ptr, ptr %46, align 8, !tbaa !32
  %48 = icmp ne ptr %47, null
  br i1 %48, label %49, label %57

49:                                               ; preds = %44
  %50 = load ptr, ptr %4, align 8, !tbaa !24
  %51 = getelementptr inbounds nuw %struct.FxuCube, ptr %50, i32 0, i32 4
  %52 = load ptr, ptr %51, align 8, !tbaa !30
  %53 = load ptr, ptr %4, align 8, !tbaa !24
  %54 = getelementptr inbounds nuw %struct.FxuCube, ptr %53, i32 0, i32 5
  %55 = load ptr, ptr %54, align 8, !tbaa !32
  %56 = getelementptr inbounds nuw %struct.FxuCube, ptr %55, i32 0, i32 4
  store ptr %52, ptr %56, align 8, !tbaa !30
  br label %57

57:                                               ; preds = %49, %44
  %58 = load ptr, ptr %5, align 8, !tbaa !25
  %59 = getelementptr inbounds nuw %struct.FxuListCube, ptr %58, i32 0, i32 2
  %60 = load i32, ptr %59, align 8, !tbaa !33
  %61 = add nsw i32 %60, -1
  store i32 %61, ptr %59, align 8, !tbaa !33
  call void @llvm.lifetime.end.p0(i64 8, ptr %5) #3
  ret void
}