; Function Attrs: mustprogress nofree norecurse nosync nounwind willreturn memory(write, argmem: readwrite, inaccessiblemem: none) uwtable
define void @Fxu_ListMatrixDelCube(ptr noundef captures(none) %0, ptr noundef readonly %1) local_unnamed_addr #0 {
  %3 = load ptr, ptr %0, align 8, !tbaa !19
  %4 = icmp eq ptr %3, %1
  br i1 %4, label %5, label %8

5:                                                ; preds = %2
  %6 = getelementptr inbounds nuw i8, ptr %1, i64 56
  %7 = load ptr, ptr %6, align 8, !tbaa !22
  store ptr %7, ptr %0, align 8, !tbaa !19
  br label %8

8:                                                ; preds = %5, %2
  %9 = getelementptr inbounds nuw i8, ptr %0, i64 8
  %10 = load ptr, ptr %9, align 8, !tbaa !21
  %11 = icmp eq ptr %10, %1
  %12 = getelementptr inbounds nuw i8, ptr %1, i64 48
  %13 = load ptr, ptr %12, align 8, !tbaa !24
  br i1 %11, label %14, label %._crit_edge

14:                                               ; preds = %8
  store ptr %13, ptr %9, align 8, !tbaa !21
  br label %._crit_edge

._crit_edge:                                      ; preds = %8, %14
  %.not = icmp eq ptr %13, null
  %.phi.trans.insert20 = getelementptr inbounds nuw i8, ptr %1, i64 56
  %.pre21 = load ptr, ptr %.phi.trans.insert20, align 8, !tbaa !22
  br i1 %.not, label %._crit_edge19, label %15

15:                                               ; preds = %._crit_edge
  %16 = getelementptr inbounds nuw i8, ptr %13, i64 56
  store ptr %.pre21, ptr %16, align 8, !tbaa !22
  br label %._crit_edge19

._crit_edge19:                                    ; preds = %._crit_edge, %15
  %.not18 = icmp eq ptr %.pre21, null
  br i1 %.not18, label %19, label %17

17:                                               ; preds = %._crit_edge19
  %18 = getelementptr inbounds nuw i8, ptr %.pre21, i64 48
  store ptr %13, ptr %18, align 8, !tbaa !24
  br label %19

19:                                               ; preds = %17, %._crit_edge19
  %20 = getelementptr inbounds nuw i8, ptr %0, i64 16
  %21 = load i32, ptr %20, align 8, !tbaa !25
  %22 = add nsw i32 %21, -1
  store i32 %22, ptr %20, align 8, !tbaa !25
  ret void
}